; Function Attrs: null_pointer_is_valid sspstrong uwtable
define internal fastcc ptr @private_data_get_preCinfo(ptr %.16.val) unnamed_addr #0 {
  %1 = getelementptr inbounds nuw i8, ptr %.16.val, i64 408
  %2 = load ptr, ptr %1, align 8
  %3 = load i32, ptr @proto_mms, align 4
  %4 = getelementptr inbounds nuw i8, ptr %.16.val, i64 376
  %5 = load i8, ptr %4, align 8
  %6 = zext i8 %5 to i32
  %7 = tail call ptr @p_get_proto_data(ptr noundef %2, ptr noundef %.16.val, i32 noundef %3, i32 noundef %6)
  %.not.i = icmp eq ptr %7, null
  br i1 %.not.i, label %8, label %mms_get_private_data.exit

8:                                                ; preds = %0
  %9 = load ptr, ptr %1, align 8
  %10 = tail call noalias dereferenceable_or_null(1034) ptr @wmem_alloc0(ptr noundef %9, i64 noundef 1034) #9
  %11 = load ptr, ptr %1, align 8
  %12 = load i32, ptr @proto_mms, align 4
  %13 = load i8, ptr %4, align 8
  %14 = zext i8 %13 to i32
  tail call void @p_add_proto_data(ptr noundef %11, ptr noundef %.16.val, i32 noundef %12, i32 noundef %14, ptr noundef %10)
  br label %mms_get_private_data.exit

mms_get_private_data.exit:                        ; preds = %0, %8
  %.0.i = phi ptr [ %10, %8 ], [ %7, %0 ]
  ret ptr %.0.i
}